; Function Attrs: nounwind uwtable
define hidden noundef zeroext i1 @zend_optimizer_get_collected_constant(ptr noundef %0, ptr noundef readonly captures(none) %1, ptr noundef writeonly captures(none) %2) local_unnamed_addr #0 {
  %4 = load ptr, ptr %1, align 8, !tbaa !20
  %5 = tail call ptr @zend_hash_find(ptr noundef %0, ptr noundef %4) #20
  %.not = icmp ne ptr %5, null
  br i1 %.not, label %6, label %15

6:                                                ; preds = %3
  %7 = load ptr, ptr %5, align 8, !tbaa !20
  %8 = getelementptr inbounds nuw i8, ptr %5, i64 8
  %9 = load i32, ptr %8, align 8, !tbaa !20
  store ptr %7, ptr %2, align 8, !tbaa !20
  %10 = getelementptr inbounds nuw i8, ptr %2, i64 8
  store i32 %9, ptr %10, align 8, !tbaa !20
  %11 = and i32 %9, 65280
  %.not13 = icmp eq i32 %11, 0
  br i1 %.not13, label %15, label %12

12:                                               ; preds = %6
  %13 = load i32, ptr %7, align 4, !tbaa !21
  %14 = add i32 %13, 1
  store i32 %14, ptr %7, align 4, !tbaa !21
  br label %15

15:                                               ; preds = %3, %6, %12
  ret i1 %.not
}